target datalayout = "e-m:e-p270:32:32-p271:32:32-p272:64:64-i64:64-i128:128-f80:128-n8:16:32:64-S128"
target triple = "x86_64-pc-linux-gnu"

%struct.Ivy_Obj_t_ = type { i32, i32, i32, i32, ptr, ptr, ptr, ptr, ptr, ptr, ptr, ptr }
%struct.Vec_Ptr_t_ = type { i32, i32, ptr }

; Function Attrs: inlinehint nounwind uwtable
define internal void @Vec_PtrGrow(ptr noundef %0, i32 noundef %1) #3 {
  %3 = alloca ptr, align 8
  %4 = alloca i32, align 4
  store ptr %0, ptr %3, align 8, !tbaa !28
  store i32 %1, ptr %4, align 4, !tbaa !8
  %5 = load ptr, ptr %3, align 8, !tbaa !28
  %6 = getelementptr inbounds nuw %struct.Vec_Ptr_t_, ptr %5, i32 0, i32 0
  %7 = load i32, ptr %6, align 8, !tbaa !49
  %8 = load i32, ptr %4, align 4, !tbaa !8
  %9 = icmp sge i32 %7, %8
  br i1 %9, label %10, label %11

10:                                               ; preds = %2
  br label %36

11:                                               ; preds = %2
  %12 = load ptr, ptr %3, align 8, !tbaa !28
  %13 = getelementptr inbounds nuw %struct.Vec_Ptr_t_, ptr %12, i32 0, i32 2
  %14 = load ptr, ptr %13, align 8, !tbaa !31
  %15 = icmp ne ptr %14, null
  br i1 %15, label %16, label %24

16:                                               ; preds = %11
  %17 = load ptr, ptr %3, align 8, !tbaa !28
  %18 = getelementptr inbounds nuw %struct.Vec_Ptr_t_, ptr %17, i32 0, i32 2
  %19 = load ptr, ptr %18, align 8, !tbaa !31
  %20 = load i32, ptr %4, align 4, !tbaa !8
  %21 = sext i32 %20 to i64
  %22 = mul i64 8, %21
  %23 = call ptr @realloc(ptr noundef %19, i64 noundef %22) #9
  br label %29

24:                                               ; preds = %11
  %25 = load i32, ptr %4, align 4, !tbaa !8
  %26 = sext i32 %25 to i64
  %27 = mul i64 8, %26
  %28 = call noalias ptr @malloc(i64 noundef %27) #8
  br label %29

29:                                               ; preds = %24, %16
  %30 = phi ptr [ %23, %16 ], [ %28, %24 ]
  %31 = load ptr, ptr %3, align 8, !tbaa !28
  %32 = getelementptr inbounds nuw %struct.Vec_Ptr_t_, ptr %31, i32 0, i32 2
  store ptr %30, ptr %32, align 8, !tbaa !31
  %33 = load i32, ptr %4, align 4, !tbaa !8
  %34 = load ptr, ptr %3, align 8, !tbaa !28
  %35 = getelementptr inbounds nuw %struct.Vec_Ptr_t_, ptr %34, i32 0, i32 0
  store i32 %33, ptr %35, align 8, !tbaa !49
  br label %36

36:                                               ; preds = %29, %10
  ret void
}

; Function Attrs: inlinehint nounwind uwtable
define internal ptr @Ivy_ObjChild1(ptr noundef %0) #3 {
  %2 = alloca ptr, align 8
  store ptr %0, ptr %2, align 8, !tbaa !19
  %3 = load ptr, ptr %2, align 8, !tbaa !19
  %4 = getelementptr inbounds nuw %struct.Ivy_Obj_t_, ptr %3, i32 0, i32 5
  %5 = load ptr, ptr %4, align 8, !tbaa !50
  ret ptr %5
}

; Function Attrs: inlinehint nounwind uwtable
define internal ptr @Ivy_ObjChild0(ptr noundef %0) #3 {
  %2 = alloca ptr, align 8
  store ptr %0, ptr %2, align 8, !tbaa !19
  %3 = load ptr, ptr %2, align 8, !tbaa !19
  %4 = getelementptr inbounds nuw %struct.Ivy_Obj_t_, ptr %3, i32 0, i32 4
  %5 = load ptr, ptr %4, align 8, !tbaa !37
  ret ptr %5
}

; Function Attrs: inlinehint nounwind uwtable
define internal void @Vec_PtrPush(ptr noundef %0, ptr noundef %1) #3 {
  %3 = alloca ptr, align 8
  %4 = alloca ptr, align 8
  store ptr %0, ptr %3, align 8, !tbaa !28
  store ptr %1, ptr %4, align 8, !tbaa !32
  %5 = load ptr, ptr %3, align 8, !tbaa !28
  %6 = getelementptr inbounds nuw %struct.Vec_Ptr_t_, ptr %5, i32 0, i32 1
  %7 = load i32, ptr %6, align 4, !tbaa !29
  %8 = load ptr, ptr %3, align 8, !tbaa !28
  %9 = getelementptr inbounds nuw %struct.Vec_Ptr_t_, ptr %8, i32 0, i32 0
  %10 = load i32, ptr %9, align 8, !tbaa !49
  %11 = icmp eq i32 %7, %10
  br i1 %11, label %12, label %26

12:                                               ; preds = %2
  %13 = load ptr, ptr %3, align 8, !tbaa !28
  %14 = getelementptr inbounds nuw %struct.Vec_Ptr_t_, ptr %13, i32 0, i32 0
  %15 = load i32, ptr %14, align 8, !tbaa !49
  %16 = icmp slt i32 %15, 16
  br i1 %16, label %17, label %19

17:                                               ; preds = %12
  %18 = load ptr, ptr %3, align 8, !tbaa !28
  call void @Vec_PtrGrow(ptr noundef %18, i32 noundef 16)
  br label %25

19:                                               ; preds = %12
  %20 = load ptr, ptr %3, align 8, !tbaa !28
  %21 = load ptr, ptr %3, align 8, !tbaa !28
  %22 = getelementptr inbounds nuw %struct.Vec_Ptr_t_, ptr %21, i32 0, i32 0
  %23 = load i32, ptr %22, align 8, !tbaa !49
  %24 = mul nsw i32 2, %23
  call void @Vec_PtrGrow(ptr noundef %20, i32 noundef %24)
  br label %25

25:                                               ; preds = %19, %17
  br label %26

26:                                               ; preds = %25, %2
  %27 = load ptr, ptr %4, align 8, !tbaa !32
  %28 = load ptr, ptr %3, align 8, !tbaa !28
  %29 = getelementptr inbounds nuw %struct.Vec_Ptr_t_, ptr %28, i32 0, i32 2
  %30 = load ptr, ptr %29, align 8, !tbaa !31
  %31 = load ptr, ptr %3, align 8, !tbaa !28
  %32 = getelementptr inbounds nuw %struct.Vec_Ptr_t_, ptr %31, i32 0, i32 1
  %33 = load i32, ptr %32, align 4, !tbaa !29
  %34 = add nsw i32 %33, 1
  store i32 %34, ptr %32, align 4, !tbaa !29
  %35 = sext i32 %33 to i64
  %36 = getelementptr inbounds ptr, ptr %30, i64 %35
  store ptr %27, ptr %36, align 8, !tbaa !32
  ret void
}

; Function Attrs: inlinehint nounwind uwtable
define internal i32 @Vec_PtrSize(ptr noundef %0) #3 {
  %2 = alloca ptr, align 8
  store ptr %0, ptr %2, align 8, !tbaa !28
  %3 = load ptr, ptr %2, align 8, !tbaa !28
  %4 = getelementptr inbounds nuw %struct.Vec_Ptr_t_, ptr %3, i32 0, i32 1
  %5 = load i32, ptr %4, align 4, !tbaa !29
  ret i32 %5
}

; Function Attrs: inlinehint nounwind uwtable
define internal i32 @Ivy_ObjRefs(ptr noundef %0) #3 {
  %2 = alloca ptr, align 8
  store ptr %0, ptr %2, align 8, !tbaa !19
  %3 = load ptr, ptr %2, align 8, !tbaa !19
  %4 = getelementptr inbounds nuw %struct.Ivy_Obj_t_, ptr %3, i32 0, i32 3
  %5 = load i32, ptr %4, align 4, !tbaa !48
  ret i32 %5
}

; Function Attrs: inlinehint nounwind uwtable
define internal i32 @Ivy_ObjType(ptr noundef %0) #3 {
  %2 = alloca ptr, align 8
  store ptr %0, ptr %2, align 8, !tbaa !19
  %3 = load ptr, ptr %2, align 8, !tbaa !19
  %4 = getelementptr inbounds nuw %struct.Ivy_Obj_t_, ptr %3, i32 0, i32 2
  %5 = load i32, ptr %4, align 8
  %6 = and i32 %5, 15
  ret i32 %6
}

; Function Attrs: inlinehint nounwind uwtable
define internal i32 @Ivy_IsComplement(ptr noundef %0) #3 {
  %2 = alloca ptr, align 8
  store ptr %0, ptr %2, align 8, !tbaa !19
  %3 = load ptr, ptr %2, align 8, !tbaa !19
  %4 = ptrtoint ptr %3 to i64
  %5 = and i64 %4, 1
  %6 = trunc i64 %5 to i32
  ret i32 %6
}

; Function Attrs: inlinehint nounwind uwtable
define internal ptr @Ivy_Not(ptr noundef %0) #3 {
  %2 = alloca ptr, align 8
  store ptr %0, ptr %2, align 8, !tbaa !19
  %3 = load ptr, ptr %2, align 8, !tbaa !19
  %4 = ptrtoint ptr %3 to i64
  %5 = xor i64 %4, 1
  %6 = inttoptr i64 %5 to ptr
  ret ptr %6
}

; Function Attrs: inlinehint nounwind uwtable
define internal ptr @Ivy_Regular(ptr noundef %0) #3 {
  %2 = alloca ptr, align 8
  store ptr %0, ptr %2, align 8, !tbaa !19
  %3 = load ptr, ptr %2, align 8, !tbaa !19
  %4 = ptrtoint ptr %3 to i64
  %5 = and i64 %4, -2
  %6 = inttoptr i64 %5 to ptr
  ret ptr %6
}

; Function Attrs: nounwind uwtable
define i32 @Ivy_NodeBalanceCone_rec(ptr noundef %0, ptr noundef %1, ptr noundef %2) #0 {
  %4 = alloca i32, align 4
  %5 = alloca ptr, align 8
  %6 = alloca ptr, align 8
  %7 = alloca ptr, align 8
  %8 = alloca i32, align 4
  %9 = alloca i32, align 4
  %10 = alloca i32, align 4
  %11 = alloca i32, align 4
  store ptr %0, ptr %5, align 8, !tbaa !19
  store ptr %1, ptr %6, align 8, !tbaa !19
  store ptr %2, ptr %7, align 8, !tbaa !28
  call void @llvm.lifetime.start.p0(i64 4, ptr %8) #7
  call void @llvm.lifetime.start.p0(i64 4, ptr %9) #7
  call void @llvm.lifetime.start.p0(i64 4, ptr %10) #7
  %12 = load ptr, ptr %6, align 8, !tbaa !19
  %13 = call ptr @Ivy_Regular(ptr noundef %12)
  %14 = getelementptr inbounds nuw %struct.Ivy_Obj_t_, ptr %13, i32 0, i32 2
  %15 = load i32, ptr %14, align 8
  %16 = lshr i32 %15, 5
  %17 = and i32 %16, 1
  %18 = icmp ne i32 %17, 0
  br i1 %18, label %19, label %65

19:                                               ; preds = %3
  store i32 0, ptr %10, align 4, !tbaa !8
  br label %20

20:                                               ; preds = %38, %19
  %21 = load i32, ptr %10, align 4, !tbaa !8
  %22 = load ptr, ptr %7, align 8, !tbaa !28
  %23 = getelementptr inbounds nuw %struct.Vec_Ptr_t_, ptr %22, i32 0, i32 1
  %24 = load i32, ptr %23, align 4, !tbaa !29
  %25 = icmp slt i32 %21, %24
  br i1 %25, label %26, label %41

26:                                               ; preds = %20
  %27 = load ptr, ptr %7, align 8, !tbaa !28
  %28 = getelementptr inbounds nuw %struct.Vec_Ptr_t_, ptr %27, i32 0, i32 2
  %29 = load ptr, ptr %28, align 8, !tbaa !31
  %30 = load i32, ptr %10, align 4, !tbaa !8
  %31 = sext i32 %30 to i64
  %32 = getelementptr inbounds ptr, ptr %29, i64 %31
  %33 = load ptr, ptr %32, align 8, !tbaa !32
  %34 = load ptr, ptr %6, align 8, !tbaa !19
  %35 = icmp eq ptr %33, %34
  br i1 %35, label %36, label %37

36:                                               ; preds = %26
  store i32 1, ptr %4, align 4
  store i32 1, ptr %11, align 4
  br label %124

37:                                               ; preds = %26
  br label %38

38:                                               ; preds = %37
  %39 = load i32, ptr %10, align 4, !tbaa !8
  %40 = add nsw i32 %39, 1
  store i32 %40, ptr %10, align 4, !tbaa !8
  br label %20, !llvm.loop !46

41:                                               ; preds = %20
  store i32 0, ptr %10, align 4, !tbaa !8
  br label %42

42:                                               ; preds = %61, %41
  %43 = load i32, ptr %10, align 4, !tbaa !8
  %44 = load ptr, ptr %7, align 8, !tbaa !28
  %45 = getelementptr inbounds nuw %struct.Vec_Ptr_t_, ptr %44, i32 0, i32 1
  %46 = load i32, ptr %45, align 4, !tbaa !29
  %47 = icmp slt i32 %43, %46
  br i1 %47, label %48, label %64

48:                                               ; preds = %42
  %49 = load ptr, ptr %7, align 8, !tbaa !28
  %50 = getelementptr inbounds nuw %struct.Vec_Ptr_t_, ptr %49, i32 0, i32 2
  %51 = load ptr, ptr %50, align 8, !tbaa !31
  %52 = load i32, ptr %10, align 4, !tbaa !8
  %53 = sext i32 %52 to i64
  %54 = getelementptr inbounds ptr, ptr %51, i64 %53
  %55 = load ptr, ptr %54, align 8, !tbaa !32
  %56 = load ptr, ptr %6, align 8, !tbaa !19
  %57 = call ptr @Ivy_Not(ptr noundef %56)
  %58 = icmp eq ptr %55, %57
  br i1 %58, label %59, label %60

59:                                               ; preds = %48
  store i32 -1, ptr %4, align 4
  store i32 1, ptr %11, align 4
  br label %124

60:                                               ; preds = %48
  br label %61

61:                                               ; preds = %60
  %62 = load i32, ptr %10, align 4, !tbaa !8
  %63 = add nsw i32 %62, 1
  store i32 %63, ptr %10, align 4, !tbaa !8
  br label %42, !llvm.loop !47

64:                                               ; preds = %42
  store i32 0, ptr %4, align 4
  store i32 1, ptr %11, align 4
  br label %124

65:                                               ; preds = %3
  %66 = load ptr, ptr %6, align 8, !tbaa !19
  %67 = load ptr, ptr %5, align 8, !tbaa !19
  %68 = icmp ne ptr %66, %67
  br i1 %68, label %69, label %96

69:                                               ; preds = %65
  %70 = load ptr, ptr %6, align 8, !tbaa !19
  %71 = call i32 @Ivy_IsComplement(ptr noundef %70)
  %72 = icmp ne i32 %71, 0
  br i1 %72, label %87, label %73

73:                                               ; preds = %69
  %74 = load ptr, ptr %6, align 8, !tbaa !19
  %75 = call i32 @Ivy_ObjType(ptr noundef %74)
  %76 = load ptr, ptr %5, align 8, !tbaa !19
  %77 = call i32 @Ivy_ObjType(ptr noundef %76)
  %78 = icmp ne i32 %75, %77
  br i1 %78, label %87, label %79

79:                                               ; preds = %73
  %80 = load ptr, ptr %6, align 8, !tbaa !19
  %81 = call i32 @Ivy_ObjRefs(ptr noundef %80)
  %82 = icmp sgt i32 %81, 1
  br i1 %82, label %87, label %83

83:                                               ; preds = %79
  %84 = load ptr, ptr %7, align 8, !tbaa !28
  %85 = call i32 @Vec_PtrSize(ptr noundef %84)
  %86 = icmp sgt i32 %85, 10000
  br i1 %86, label %87, label %96

87:                                               ; preds = %83, %79, %73, %69
  %88 = load ptr, ptr %7, align 8, !tbaa !28
  %89 = load ptr, ptr %6, align 8, !tbaa !19
  call void @Vec_PtrPush(ptr noundef %88, ptr noundef %89)
  %90 = load ptr, ptr %6, align 8, !tbaa !19
  %91 = call ptr @Ivy_Regular(ptr noundef %90)
  %92 = getelementptr inbounds nuw %struct.Ivy_Obj_t_, ptr %91, i32 0, i32 2
  %93 = load i32, ptr %92, align 8
  %94 = and i32 %93, -33
  %95 = or i32 %94, 32
  store i32 %95, ptr %92, align 8
  store i32 0, ptr %4, align 4
  store i32 1, ptr %11, align 4
  br label %124

96:                                               ; preds = %83, %65
  %97 = load ptr, ptr %5, align 8, !tbaa !19
  %98 = load ptr, ptr %6, align 8, !tbaa !19
  %99 = call ptr @Ivy_ObjChild0(ptr noundef %98)
  %100 = call ptr @Ivy_ObjReal(ptr noundef %99)
  %101 = load ptr, ptr %7, align 8, !tbaa !28
  %102 = call i32 @Ivy_NodeBalanceCone_rec(ptr noundef %97, ptr noundef %100, ptr noundef %101)
  store i32 %102, ptr %8, align 4, !tbaa !8
  %103 = load ptr, ptr %5, align 8, !tbaa !19
  %104 = load ptr, ptr %6, align 8, !tbaa !19
  %105 = call ptr @Ivy_ObjChild1(ptr noundef %104)
  %106 = call ptr @Ivy_ObjReal(ptr noundef %105)
  %107 = load ptr, ptr %7, align 8, !tbaa !28
  %108 = call i32 @Ivy_NodeBalanceCone_rec(ptr noundef %103, ptr noundef %106, ptr noundef %107)
  store i32 %108, ptr %9, align 4, !tbaa !8
  %109 = load i32, ptr %8, align 4, !tbaa !8
  %110 = icmp eq i32 %109, -1
  br i1 %110, label %114, label %111

111:                                              ; preds = %96
  %112 = load i32, ptr %9, align 4, !tbaa !8
  %113 = icmp eq i32 %112, -1
  br i1 %113, label %114, label %115

114:                                              ; preds = %111, %96
  store i32 -1, ptr %4, align 4
  store i32 1, ptr %11, align 4
  br label %124

115:                                              ; preds = %111
  %116 = load i32, ptr %8, align 4, !tbaa !8
  %117 = icmp ne i32 %116, 0
  br i1 %117, label %121, label %118

118:                                              ; preds = %115
  %119 = load i32, ptr %9, align 4, !tbaa !8
  %120 = icmp ne i32 %119, 0
  br label %121

121:                                              ; preds = %118, %115
  %122 = phi i1 [ true, %115 ], [ %120, %118 ]
  %123 = zext i1 %122 to i32
  store i32 %123, ptr %4, align 4
  store i32 1, ptr %11, align 4
  br label %124

124:                                              ; preds = %121, %114, %87, %64, %59, %36
  call void @llvm.lifetime.end.p0(i64 4, ptr %10) #7
  call void @llvm.lifetime.end.p0(i64 4, ptr %9) #7
  call void @llvm.lifetime.end.p0(i64 4, ptr %8) #7
  %125 = load i32, ptr %4, align 4
  ret i32 %125
}