; Function Attrs: nounwind uwtable
define range(i32 -1, 2) i32 @Ivy_NodeBalanceCone_rec(ptr noundef %0, ptr noundef %1, ptr noundef %2) local_unnamed_addr #0 {
  %4 = ptrtoint ptr %1 to i64
  %5 = and i64 %4, -2
  %6 = inttoptr i64 %5 to ptr
  %7 = getelementptr inbounds nuw i8, ptr %6, i64 8
  %8 = load i32, ptr %7, align 8
  %9 = and i32 %8, 32
  %.not = icmp eq i32 %9, 0
  br i1 %.not, label %29, label %.preheader47

.preheader47:                                     ; preds = %3
  %10 = getelementptr inbounds nuw i8, ptr %2, i64 4
  %11 = load i32, ptr %10, align 4, !tbaa !19
  %12 = icmp sgt i32 %11, 0
  br i1 %12, label %.lr.ph, label %.loopexit

.lr.ph:                                           ; preds = %.preheader47
  %13 = getelementptr inbounds nuw i8, ptr %2, i64 8
  %14 = load ptr, ptr %13, align 8, !tbaa !21
  %wide.trip.count = zext nneg i32 %11 to i64
  br label %20

15:                                               ; preds = %20
  %indvars.iv.next = add nuw nsw i64 %indvars.iv, 1
  %exitcond.not = icmp eq i64 %indvars.iv.next, %wide.trip.count
  br i1 %exitcond.not, label %.lr.ph52, label %20, !llvm.loop !45

.lr.ph52:                                         ; preds = %15
  %16 = getelementptr inbounds nuw i8, ptr %2, i64 8
  %17 = load ptr, ptr %16, align 8, !tbaa !21
  %18 = xor i64 %4, 1
  %19 = inttoptr i64 %18 to ptr
  %wide.trip.count61 = zext nneg i32 %11 to i64
  br label %25

20:                                               ; preds = %.lr.ph, %15
  %indvars.iv = phi i64 [ 0, %.lr.ph ], [ %indvars.iv.next, %15 ]
  %21 = getelementptr inbounds nuw ptr, ptr %14, i64 %indvars.iv
  %22 = load ptr, ptr %21, align 8, !tbaa !22
  %23 = icmp eq ptr %22, %1
  br i1 %23, label %.loopexit, label %15

24:                                               ; preds = %25
  %indvars.iv.next59 = add nuw nsw i64 %indvars.iv58, 1
  %exitcond62.not = icmp eq i64 %indvars.iv.next59, %wide.trip.count61
  br i1 %exitcond62.not, label %.loopexit, label %25, !llvm.loop !46

25:                                               ; preds = %.lr.ph52, %24
  %indvars.iv58 = phi i64 [ 0, %.lr.ph52 ], [ %indvars.iv.next59, %24 ]
  %26 = getelementptr inbounds nuw ptr, ptr %17, i64 %indvars.iv58
  %27 = load ptr, ptr %26, align 8, !tbaa !22
  %28 = icmp eq ptr %27, %19
  br i1 %28, label %.loopexit, label %24

29:                                               ; preds = %3
  %.not39 = icmp eq ptr %1, %0
  br i1 %.not39, label %77, label %30

30:                                               ; preds = %29
  %31 = and i64 %4, 1
  %.not40 = icmp eq i64 %31, 0
  br i1 %.not40, label %32, label %43

32:                                               ; preds = %30
  %33 = getelementptr i8, ptr %1, i64 8
  %.val43 = load i32, ptr %33, align 8
  %34 = getelementptr i8, ptr %0, i64 8
  %.val44 = load i32, ptr %34, align 8
  %35 = xor i32 %.val44, %.val43
  %36 = and i32 %35, 15
  %.not41 = icmp eq i32 %36, 0
  br i1 %.not41, label %37, label %43

37:                                               ; preds = %32
  %38 = getelementptr i8, ptr %1, i64 12
  %.val45 = load i32, ptr %38, align 4, !tbaa !47
  %39 = icmp sgt i32 %.val45, 1
  br i1 %39, label %43, label %40

40:                                               ; preds = %37
  %41 = getelementptr i8, ptr %2, i64 4
  %.val = load i32, ptr %41, align 4, !tbaa !19
  %42 = icmp sgt i32 %.val, 10000
  br i1 %42, label %43, label %77

43:                                               ; preds = %40, %37, %32, %30
  %44 = getelementptr inbounds nuw i8, ptr %2, i64 4
  %45 = load i32, ptr %44, align 4, !tbaa !19
  %46 = load i32, ptr %2, align 8, !tbaa !34
  %47 = icmp eq i32 %45, %46
  br i1 %47, label %48, label %.Vec_PtrGrow.exit11_crit_edge.i

.Vec_PtrGrow.exit11_crit_edge.i:                  ; preds = %43
  %.phi.trans.insert.i = getelementptr inbounds nuw i8, ptr %2, i64 8
  %.pre.i = load ptr, ptr %.phi.trans.insert.i, align 8, !tbaa !21
  br label %Vec_PtrPush.exit

48:                                               ; preds = %43
  %49 = icmp slt i32 %45, 16
  br i1 %49, label %50, label %58

50:                                               ; preds = %48
  %51 = getelementptr inbounds nuw i8, ptr %2, i64 8
  %52 = load ptr, ptr %51, align 8, !tbaa !21
  %.not9.i.i = icmp eq ptr %52, null
  br i1 %.not9.i.i, label %55, label %53

53:                                               ; preds = %50
  %54 = tail call dereferenceable_or_null(128) ptr @realloc(ptr noundef nonnull %52, i64 noundef 128) #11
  br label %Vec_PtrGrow.exit.i

55:                                               ; preds = %50
  %56 = tail call noalias dereferenceable_or_null(128) ptr @malloc(i64 noundef 128) #10
  br label %Vec_PtrGrow.exit.i

Vec_PtrGrow.exit.i:                               ; preds = %55, %53
  %57 = phi ptr [ %54, %53 ], [ %56, %55 ]
  store ptr %57, ptr %51, align 8, !tbaa !21
  store i32 16, ptr %2, align 8, !tbaa !34
  br label %Vec_PtrPush.exit

58:                                               ; preds = %48
  %59 = shl nuw nsw i32 %45, 1
  %60 = getelementptr inbounds nuw i8, ptr %2, i64 8
  %61 = load ptr, ptr %60, align 8, !tbaa !21
  %.not9.i10.i = icmp eq ptr %61, null
  %62 = zext nneg i32 %59 to i64
  %63 = shl nuw nsw i64 %62, 3
  br i1 %.not9.i10.i, label %66, label %64

64:                                               ; preds = %58
  %65 = tail call ptr @realloc(ptr noundef nonnull %61, i64 noundef %63) #11
  br label %68

66:                                               ; preds = %58
  %67 = tail call noalias ptr @malloc(i64 noundef %63) #10
  br label %68

68:                                               ; preds = %66, %64
  %69 = phi ptr [ %65, %64 ], [ %67, %66 ]
  store ptr %69, ptr %60, align 8, !tbaa !21
  store i32 %59, ptr %2, align 8, !tbaa !34
  br label %Vec_PtrPush.exit

Vec_PtrPush.exit:                                 ; preds = %.Vec_PtrGrow.exit11_crit_edge.i, %Vec_PtrGrow.exit.i, %68
  %70 = phi ptr [ %.pre.i, %.Vec_PtrGrow.exit11_crit_edge.i ], [ %69, %68 ], [ %57, %Vec_PtrGrow.exit.i ]
  %71 = load i32, ptr %44, align 4, !tbaa !19
  %72 = add nsw i32 %71, 1
  store i32 %72, ptr %44, align 4, !tbaa !19
  %73 = sext i32 %71 to i64
  %74 = getelementptr inbounds ptr, ptr %70, i64 %73
  store ptr %1, ptr %74, align 8, !tbaa !22
  %75 = load i32, ptr %7, align 8
  %76 = or i32 %75, 32
  store i32 %76, ptr %7, align 8
  br label %.loopexit

77:                                               ; preds = %40, %29
  %78 = getelementptr i8, ptr %1, i64 16
  %.val42 = load ptr, ptr %78, align 8, !tbaa !30
  %79 = tail call ptr @Ivy_ObjReal(ptr noundef %.val42) #9
  %80 = tail call i32 @Ivy_NodeBalanceCone_rec(ptr noundef %0, ptr noundef %79, ptr noundef %2)
  %81 = getelementptr i8, ptr %1, i64 24
  %.val46 = load ptr, ptr %81, align 8, !tbaa !41
  %82 = tail call ptr @Ivy_ObjReal(ptr noundef %.val46) #9
  %83 = tail call i32 @Ivy_NodeBalanceCone_rec(ptr noundef %0, ptr noundef %82, ptr noundef %2)
  %84 = icmp eq i32 %80, -1
  %85 = icmp eq i32 %83, -1
  %or.cond = select i1 %84, i1 true, i1 %85
  br i1 %or.cond, label %.loopexit, label %86

86:                                               ; preds = %77
  %87 = icmp ne i32 %80, 0
  %88 = icmp ne i32 %83, 0
  %89 = select i1 %87, i1 true, i1 %88
  %90 = zext i1 %89 to i32
  br label %.loopexit

.loopexit:                                        ; preds = %20, %25, %24, %.preheader47, %77, %86, %Vec_PtrPush.exit
  %.034 = phi i32 [ 0, %Vec_PtrPush.exit ], [ %90, %86 ], [ -1, %77 ], [ 0, %.preheader47 ], [ -1, %25 ], [ 0, %24 ], [ 1, %20 ]
  ret i32 %.034
}